target datalayout = "e-m:e-p270:32:32-p271:32:32-p272:64:64-i64:64-i128:128-f80:128-n8:16:32:64-S128"
target triple = "x86_64-pc-linux-gnu"

%struct.Vector3 = type { float, float, float }
%struct.Vector4 = type { float, float, float, float }

; Function Attrs: nounwind uwtable
define { <2 x float>, float } @QuaternionToEuler(<2 x float> %0, <2 x float> %1) #9 {
  %3 = alloca %struct.Vector3, align 4
  %4 = alloca %struct.Vector4, align 4
  %5 = alloca float, align 4
  %6 = alloca float, align 4
  %7 = alloca float, align 4
  %8 = alloca float, align 4
  %9 = alloca float, align 4
  %10 = alloca { <2 x float>, float }, align 8
  %11 = getelementptr inbounds nuw { <2 x float>, <2 x float> }, ptr %4, i32 0, i32 0
  store <2 x float> %0, ptr %11, align 4
  %12 = getelementptr inbounds nuw { <2 x float>, <2 x float> }, ptr %4, i32 0, i32 1
  store <2 x float> %1, ptr %12, align 4
  call void @llvm.memset.p0.i64(ptr align 4 %3, i8 0, i64 12, i1 false)
  call void @llvm.lifetime.start.p0(i64 4, ptr %5) #16
  %13 = getelementptr inbounds nuw %struct.Vector4, ptr %4, i32 0, i32 3
  %14 = load float, ptr %13, align 4
  %15 = getelementptr inbounds nuw %struct.Vector4, ptr %4, i32 0, i32 0
  %16 = load float, ptr %15, align 4
  %17 = getelementptr inbounds nuw %struct.Vector4, ptr %4, i32 0, i32 1
  %18 = load float, ptr %17, align 4
  %19 = getelementptr inbounds nuw %struct.Vector4, ptr %4, i32 0, i32 2
  %20 = load float, ptr %19, align 4
  %21 = fmul float %18, %20
  %22 = call float @llvm.fmuladd.f32(float %14, float %16, float %21)
  %23 = fmul float 2.000000e+00, %22
  store float %23, ptr %5, align 4
  call void @llvm.lifetime.start.p0(i64 4, ptr %6) #16
  %24 = getelementptr inbounds nuw %struct.Vector4, ptr %4, i32 0, i32 0
  %25 = load float, ptr %24, align 4
  %26 = getelementptr inbounds nuw %struct.Vector4, ptr %4, i32 0, i32 0
  %27 = load float, ptr %26, align 4
  %28 = getelementptr inbounds nuw %struct.Vector4, ptr %4, i32 0, i32 1
  %29 = load float, ptr %28, align 4
  %30 = getelementptr inbounds nuw %struct.Vector4, ptr %4, i32 0, i32 1
  %31 = load float, ptr %30, align 4
  %32 = fmul float %29, %31
  %33 = call float @llvm.fmuladd.f32(float %25, float %27, float %32)
  %34 = call float @llvm.fmuladd.f32(float -2.000000e+00, float %33, float 1.000000e+00)
  store float %34, ptr %6, align 4
  %35 = load float, ptr %5, align 4
  %36 = load float, ptr %6, align 4
  %37 = call float @atan2f(float noundef %35, float noundef %36) #16
  %38 = getelementptr inbounds nuw %struct.Vector3, ptr %3, i32 0, i32 0
  store float %37, ptr %38, align 4
  call void @llvm.lifetime.start.p0(i64 4, ptr %7) #16
  %39 = getelementptr inbounds nuw %struct.Vector4, ptr %4, i32 0, i32 3
  %40 = load float, ptr %39, align 4
  %41 = getelementptr inbounds nuw %struct.Vector4, ptr %4, i32 0, i32 1
  %42 = load float, ptr %41, align 4
  %43 = getelementptr inbounds nuw %struct.Vector4, ptr %4, i32 0, i32 2
  %44 = load float, ptr %43, align 4
  %45 = getelementptr inbounds nuw %struct.Vector4, ptr %4, i32 0, i32 0
  %46 = load float, ptr %45, align 4
  %47 = fmul float %44, %46
  %48 = fneg float %47
  %49 = call float @llvm.fmuladd.f32(float %40, float %42, float %48)
  %50 = fmul float 2.000000e+00, %49
  store float %50, ptr %7, align 4
  %51 = load float, ptr %7, align 4
  %52 = fcmp ogt float %51, 1.000000e+00
  br i1 %52, label %53, label %54

53:                                               ; preds = %2
  br label %56

54:                                               ; preds = %2
  %55 = load float, ptr %7, align 4
  br label %56

56:                                               ; preds = %54, %53
  %57 = phi float [ 1.000000e+00, %53 ], [ %55, %54 ]
  store float %57, ptr %7, align 4
  %58 = load float, ptr %7, align 4
  %59 = fcmp olt float %58, -1.000000e+00
  br i1 %59, label %60, label %61

60:                                               ; preds = %56
  br label %63

61:                                               ; preds = %56
  %62 = load float, ptr %7, align 4
  br label %63

63:                                               ; preds = %61, %60
  %64 = phi float [ -1.000000e+00, %60 ], [ %62, %61 ]
  store float %64, ptr %7, align 4
  %65 = load float, ptr %7, align 4
  %66 = call float @asinf(float noundef %65) #16
  %67 = getelementptr inbounds nuw %struct.Vector3, ptr %3, i32 0, i32 1
  store float %66, ptr %67, align 4
  call void @llvm.lifetime.start.p0(i64 4, ptr %8) #16
  %68 = getelementptr inbounds nuw %struct.Vector4, ptr %4, i32 0, i32 3
  %69 = load float, ptr %68, align 4
  %70 = getelementptr inbounds nuw %struct.Vector4, ptr %4, i32 0, i32 2
  %71 = load float, ptr %70, align 4
  %72 = getelementptr inbounds nuw %struct.Vector4, ptr %4, i32 0, i32 0
  %73 = load float, ptr %72, align 4
  %74 = getelementptr inbounds nuw %struct.Vector4, ptr %4, i32 0, i32 1
  %75 = load float, ptr %74, align 4
  %76 = fmul float %73, %75
  %77 = call float @llvm.fmuladd.f32(float %69, float %71, float %76)
  %78 = fmul float 2.000000e+00, %77
  store float %78, ptr %8, align 4
  call void @llvm.lifetime.start.p0(i64 4, ptr %9) #16
  %79 = getelementptr inbounds nuw %struct.Vector4, ptr %4, i32 0, i32 1
  %80 = load float, ptr %79, align 4
  %81 = getelementptr inbounds nuw %struct.Vector4, ptr %4, i32 0, i32 1
  %82 = load float, ptr %81, align 4
  %83 = getelementptr inbounds nuw %struct.Vector4, ptr %4, i32 0, i32 2
  %84 = load float, ptr %83, align 4
  %85 = getelementptr inbounds nuw %struct.Vector4, ptr %4, i32 0, i32 2
  %86 = load float, ptr %85, align 4
  %87 = fmul float %84, %86
  %88 = call float @llvm.fmuladd.f32(float %80, float %82, float %87)
  %89 = call float @llvm.fmuladd.f32(float -2.000000e+00, float %88, float 1.000000e+00)
  store float %89, ptr %9, align 4
  %90 = load float, ptr %8, align 4
  %91 = load float, ptr %9, align 4
  %92 = call float @atan2f(float noundef %90, float noundef %91) #16
  %93 = getelementptr inbounds nuw %struct.Vector3, ptr %3, i32 0, i32 2
  store float %92, ptr %93, align 4
  call void @llvm.lifetime.end.p0(i64 4, ptr %9) #16
  call void @llvm.lifetime.end.p0(i64 4, ptr %8) #16
  call void @llvm.lifetime.end.p0(i64 4, ptr %7) #16
  call void @llvm.lifetime.end.p0(i64 4, ptr %6) #16
  call void @llvm.lifetime.end.p0(i64 4, ptr %5) #16
  call void @llvm.memcpy.p0.p0.i64(ptr align 8 %10, ptr align 4 %3, i64 12, i1 false)
  %94 = load { <2 x float>, float }, ptr %10, align 8
  ret { <2 x float>, float } %94
}