; Function Attrs: mustprogress nofree nounwind willreturn memory(write) uwtable
define { <2 x float>, float } @QuaternionToEuler(<2 x float> %0, <2 x float> %1) local_unnamed_addr #18 {
  %.sroa.13.12.vec.extract = extractelement <2 x float> %1, i64 1
  %.sroa.09.0.vec.extract = extractelement <2 x float> %0, i64 0
  %.sroa.09.4.vec.extract = extractelement <2 x float> %0, i64 1
  %.sroa.13.8.vec.extract = extractelement <2 x float> %1, i64 0
  %3 = fmul float %.sroa.09.4.vec.extract, %.sroa.13.8.vec.extract
  %4 = tail call float @llvm.fmuladd.f32(float %.sroa.13.12.vec.extract, float %.sroa.09.0.vec.extract, float %3)
  %5 = fmul float %4, 2.000000e+00
  %6 = fmul float %.sroa.09.4.vec.extract, %.sroa.09.4.vec.extract
  %7 = tail call float @llvm.fmuladd.f32(float %.sroa.09.0.vec.extract, float %.sroa.09.0.vec.extract, float %6)
  %8 = tail call float @llvm.fmuladd.f32(float %7, float -2.000000e+00, float 1.000000e+00)
  %9 = tail call float @atan2f(float noundef %5, float noundef %8) #56
  %.sroa.042.0.vec.insert = insertelement <2 x float> poison, float %9, i64 0
  %10 = fneg float %.sroa.09.0.vec.extract
  %11 = fmul float %.sroa.13.8.vec.extract, %10
  %12 = tail call float @llvm.fmuladd.f32(float %.sroa.13.12.vec.extract, float %.sroa.09.4.vec.extract, float %11)
  %13 = fmul float %12, 2.000000e+00
  %14 = fcmp ogt float %13, 1.000000e+00
  %15 = select i1 %14, float 1.000000e+00, float %13
  %16 = fcmp olt float %15, -1.000000e+00
  %17 = select i1 %16, float -1.000000e+00, float %15
  %18 = tail call float @asinf(float noundef %17) #56
  %.sroa.042.4.vec.insert = insertelement <2 x float> %.sroa.042.0.vec.insert, float %18, i64 1
  %19 = fmul float %.sroa.09.0.vec.extract, %.sroa.09.4.vec.extract
  %20 = tail call float @llvm.fmuladd.f32(float %.sroa.13.12.vec.extract, float %.sroa.13.8.vec.extract, float %19)
  %21 = fmul float %20, 2.000000e+00
  %22 = fmul <2 x float> %1, %1
  %23 = extractelement <2 x float> %22, i64 0
  %24 = tail call float @llvm.fmuladd.f32(float %.sroa.09.4.vec.extract, float %.sroa.09.4.vec.extract, float %23)
  %25 = tail call float @llvm.fmuladd.f32(float %24, float -2.000000e+00, float 1.000000e+00)
  %26 = tail call float @atan2f(float noundef %21, float noundef %25) #56
  %.fca.0.insert = insertvalue { <2 x float>, float } poison, <2 x float> %.sroa.042.4.vec.insert, 0
  %.fca.1.insert = insertvalue { <2 x float>, float } %.fca.0.insert, float %26, 1
  ret { <2 x float>, float } %.fca.1.insert
}